target datalayout = "e-m:e-p270:32:32-p271:32:32-p272:64:64-i64:64-i128:128-f80:128-n8:16:32:64-S128"
target triple = "x86_64-pc-linux-gnu"

%struct.rxinfo = type { i8, i8, i16, i32, i32, i32, i32 }

@hf_afs_butc_errcode = internal global i32 0, align 4

; Function Attrs: null_pointer_is_valid sspstrong uwtable
define internal void @dissect_butc_reply(ptr noundef %0, ptr noundef %1, i32 noundef %2) #0 {
  %4 = alloca ptr, align 8
  %5 = alloca ptr, align 8
  %6 = alloca i32, align 4
  store ptr %0, ptr %4, align 8
  store ptr %1, ptr %5, align 8
  store i32 %2, ptr %6, align 4
  %7 = load ptr, ptr %5, align 8
  %8 = getelementptr inbounds nuw %struct.rxinfo, ptr %7, i32 0, i32 0
  %9 = load i8, ptr %8, align 4
  %10 = zext i8 %9 to i32
  %11 = icmp eq i32 %10, 4
  br i1 %11, label %12, label %16

12:                                               ; preds = %3
  %13 = load ptr, ptr %4, align 8
  %14 = load i32, ptr @hf_afs_butc_errcode, align 4
  %15 = call ptr @ptvcursor_add(ptr noundef %13, i32 noundef %14, i32 noundef 4, i32 noundef 0)
  br label %16

16:                                               ; preds = %12, %3
  ret void
}