; Function Attrs: null_pointer_is_valid sspstrong uwtable
define internal void @dissect_butc_reply(ptr noundef %0, ptr noundef readonly captures(none) %1, i32 %2) #0 {
  %4 = load i8, ptr %1, align 4
  %5 = icmp eq i8 %4, 4
  br i1 %5, label %6, label %9

6:                                                ; preds = %3
  %7 = load i32, ptr @hf_afs_butc_errcode, align 4
  %8 = tail call ptr @ptvcursor_add(ptr noundef %0, i32 noundef %7, i32 noundef 4, i32 noundef 0)
  br label %9

9:                                                ; preds = %6, %3
  ret void
}